; Function Attrs: mustprogress uwtable
define void @_ZN17grpc_event_engine12experimental44RegisterEventEngineChannelArgPreconditioningEPN9grpc_core17CoreConfiguration7BuilderE(ptr noundef nonnull %0) local_unnamed_addr #3 personality ptr @__gxx_personality_v0 {
  %2 = alloca %"class.std::function", align 8
  %3 = getelementptr inbounds nuw i8, ptr %2, i64 16
  %4 = getelementptr inbounds nuw i8, ptr %2, i64 24
  %5 = getelementptr inbounds nuw i8, ptr %2, i64 8
  store i64 0, ptr %5, align 8
  store ptr @_ZN17grpc_event_engine12experimental12_GLOBAL__N_130EnsureEventEngineInChannelArgsEN9grpc_core11ChannelArgsE, ptr %2, align 8, !tbaa !116
  store ptr @_ZNSt17_Function_handlerIFN9grpc_core11ChannelArgsES1_EPS2_E9_M_invokeERKSt9_Any_dataOS1_, ptr %4, align 8, !tbaa !117
  store ptr @_ZNSt17_Function_handlerIFN9grpc_core11ChannelArgsES1_EPS2_E10_M_managerERSt9_Any_dataRKS5_St18_Manager_operation, ptr %3, align 8, !tbaa !120
  invoke void @_ZN9grpc_core26ChannelArgsPreconditioning7Builder13RegisterStageESt8functionIFNS_11ChannelArgsES3_EE(ptr noundef nonnull align 8 dereferenceable(24) %0, ptr noundef nonnull %2)
          to label %6 unwind label %13

6:                                                ; preds = %1
  %7 = load ptr, ptr %3, align 8, !tbaa !120
  %.not.i = icmp eq ptr %7, null
  br i1 %.not.i, label %_ZNSt14_Function_baseD2Ev.exit, label %8

8:                                                ; preds = %6
  %9 = invoke noundef zeroext i1 %7(ptr noundef nonnull align 8 dereferenceable(32) %2, ptr noundef nonnull align 8 dereferenceable(32) %2, i32 noundef 3)
          to label %_ZNSt14_Function_baseD2Ev.exit unwind label %10

10:                                               ; preds = %8
  %11 = landingpad { ptr, i32 }
          catch ptr null
  %12 = extractvalue { ptr, i32 } %11, 0
  call void @__clang_call_terminate(ptr %12) #31
  unreachable

_ZNSt14_Function_baseD2Ev.exit:                   ; preds = %6, %8
  ret void

13:                                               ; preds = %1
  %14 = landingpad { ptr, i32 }
          cleanup
  %15 = load ptr, ptr %3, align 8, !tbaa !120
  %.not.i2 = icmp eq ptr %15, null
  br i1 %.not.i2, label %_ZNSt14_Function_baseD2Ev.exit3, label %16

16:                                               ; preds = %13
  %17 = invoke noundef zeroext i1 %15(ptr noundef nonnull align 8 dereferenceable(32) %2, ptr noundef nonnull align 8 dereferenceable(32) %2, i32 noundef 3)
          to label %_ZNSt14_Function_baseD2Ev.exit3 unwind label %18

18:                                               ; preds = %16
  %19 = landingpad { ptr, i32 }
          catch ptr null
  %20 = extractvalue { ptr, i32 } %19, 0
  call void @__clang_call_terminate(ptr %20) #31
  unreachable

_ZNSt14_Function_baseD2Ev.exit3:                  ; preds = %13, %16
  resume { ptr, i32 } %14
}